target datalayout = "e-m:e-p270:32:32-p271:32:32-p272:64:64-i64:64-i128:128-f80:128-n8:16:32:64-S128"
target triple = "x86_64-pc-linux-gnu"

%struct.darktable_t = type { %struct.dt_codepath_t, i32, i32, ptr, ptr, ptr, ptr, ptr, ptr, ptr, ptr, ptr, ptr, ptr, ptr, ptr, ptr, ptr, ptr, ptr, ptr, ptr, ptr, ptr, ptr, ptr, ptr, ptr, ptr, ptr, [64 x %struct.dt_pthread_mutex_t], %struct.dt_pthread_mutex_t, %struct.dt_pthread_mutex_t, %struct.dt_pthread_mutex_t, %struct.dt_pthread_mutex_t, %struct.dt_pthread_mutex_t, ptr, ptr, ptr, ptr, ptr, ptr, ptr, ptr, ptr, ptr, ptr, ptr, ptr, %struct.dt_lua_state_t, ptr, double, ptr, i32, [47 x i32], i32, i32, ptr, ptr, %struct.dt_sys_resources_t, %struct.dt_backthumb_t, %struct.dt_gimp_t }
%struct.dt_codepath_t = type { i8, [3 x i8] }
%struct.dt_pthread_mutex_t = type { %union.pthread_mutex_t }
%union.pthread_mutex_t = type { %struct.__pthread_mutex_s }
%struct.__pthread_mutex_s = type { i32, i32, i32, i32, i32, i16, i16, %struct.__pthread_internal_list }
%struct.__pthread_internal_list = type { ptr, ptr }
%struct.dt_lua_state_t = type { i32 }
%struct.dt_sys_resources_t = type { i64, i64, ptr, ptr, i32 }
%struct.dt_backthumb_t = type { double, double, i32, i32, i32, i32 }
%struct.dt_gimp_t = type { i32, ptr, ptr, i32, i32 }
%struct._GdkRGBA = type { double, double, double, double }
%struct._DtBauhausWidget = type { %struct._GtkDrawingArea, i32, ptr, ptr, i32, [256 x i8], i32, ptr, i32, ptr, ptr, i32, ptr, i32, i32, i32, %struct._GtkBorder, %struct._GtkBorder, i32, %union.dt_bauhaus_data_t }
%struct._GtkDrawingArea = type { %struct._GtkWidget, ptr }
%struct._GtkWidget = type { %struct._GObject, ptr }
%struct._GObject = type { %struct._GTypeInstance, i32, ptr }
%struct._GTypeInstance = type { ptr }
%struct._GtkBorder = type { i16, i16, i16, i16 }
%union.dt_bauhaus_data_t = type { %struct.dt_bauhaus_slider_data_t }
%struct.dt_bauhaus_slider_data_t = type { float, float, float, float, float, float, float, float, float, float, i32, ptr, i32, ptr, i8, ptr, float, float, i8, i32, ptr }
%struct.dt_bauhaus_t = type { ptr, %struct.dt_bauhaus_popup_t, ptr, float, float, i32, i32, float, [180 x i8], i32, i32, [2 x i32], i32, ptr, ptr, float, float, float, float, float, ptr, ptr, i32, i32, i32, %struct._GdkRGBA, %struct._GdkRGBA, %struct._GdkRGBA, %struct._GdkRGBA, %struct._GdkRGBA, %struct._GdkRGBA, %struct._GdkRGBA, %struct._GdkRGBA, %struct._GdkRGBA, %struct._GdkRGBA, %struct._GdkRGBA, %struct._GdkRGBA, %struct._GdkRGBA, %struct._GdkRGBA, %struct._GdkRGBA, [3 x %struct._GdkRGBA], [5 x %struct._GdkRGBA] }
%struct.dt_bauhaus_popup_t = type { ptr, ptr, %struct._GtkBorder, %struct._cairo_rectangle_int, i32, i32, i32 }
%struct._cairo_rectangle_int = type { i32, i32, i32, i32 }

@darktable = external global %struct.darktable_t, align 8

; Function Attrs: nounwind uwtable
define internal float @_widget_get_quad_width(ptr noundef %0) #0 {
  %2 = alloca float, align 4
  %3 = alloca ptr, align 8
  store ptr %0, ptr %3, align 8, !tbaa !17
  %4 = load ptr, ptr %3, align 8, !tbaa !17
  %5 = getelementptr inbounds nuw %struct._DtBauhausWidget, ptr %4, i32 0, i32 14
  %6 = load i32, ptr %5, align 4, !tbaa !262
  %7 = icmp ne i32 %6, 0
  br i1 %7, label %8, label %15

8:                                                ; preds = %1
  %9 = load ptr, ptr getelementptr inbounds nuw (%struct.darktable_t, ptr @darktable, i32 0, i32 17), align 8, !tbaa !78
  %10 = getelementptr inbounds nuw %struct.dt_bauhaus_t, ptr %9, i32 0, i32 19
  %11 = load float, ptr %10, align 8, !tbaa !97
  %12 = fpext reassoc nsz arcp contract afn float %11 to double
  %13 = fadd reassoc nsz arcp contract afn double %12, 4.000000e+00
  %14 = fptrunc reassoc nsz arcp contract afn double %13 to float
  store float %14, ptr %2, align 4
  br label %16

15:                                               ; preds = %1
  store float 0.000000e+00, ptr %2, align 4
  br label %16

16:                                               ; preds = %15, %8
  %17 = load float, ptr %2, align 4
  ret float %17
}

; Function Attrs: nounwind uwtable
define internal float @_slider_right_pos(float noundef %0, ptr noundef %1) #0 {
  %3 = alloca float, align 4
  %4 = alloca ptr, align 8
  store float %0, ptr %3, align 4, !tbaa !130
  store ptr %1, ptr %4, align 8, !tbaa !17
  %5 = load ptr, ptr %4, align 8, !tbaa !17
  %6 = call reassoc nsz arcp contract afn float @_widget_get_quad_width(ptr noundef %5)
  %7 = load float, ptr %3, align 4, !tbaa !130
  %8 = fdiv reassoc nsz arcp contract afn float %6, %7
  %9 = fsub reassoc nsz arcp contract afn float 1.000000e+00, %8
  ret float %9
}

; Function Attrs: inlinehint nounwind uwtable
define internal void @set_color(ptr noundef %0, ptr noundef byval(%struct._GdkRGBA) align 8 %1) #4 {
  %3 = alloca ptr, align 8
  store ptr %0, ptr %3, align 8, !tbaa !91
  %4 = load ptr, ptr %3, align 8, !tbaa !91
  %5 = getelementptr inbounds nuw %struct._GdkRGBA, ptr %1, i32 0, i32 0
  %6 = load double, ptr %5, align 8, !tbaa !334
  %7 = getelementptr inbounds nuw %struct._GdkRGBA, ptr %1, i32 0, i32 1
  %8 = load double, ptr %7, align 8, !tbaa !335
  %9 = getelementptr inbounds nuw %struct._GdkRGBA, ptr %1, i32 0, i32 2
  %10 = load double, ptr %9, align 8, !tbaa !336
  %11 = getelementptr inbounds nuw %struct._GdkRGBA, ptr %1, i32 0, i32 3
  %12 = load double, ptr %11, align 8, !tbaa !170
  call void @cairo_set_source_rgba(ptr noundef %4, double noundef %6, double noundef %8, double noundef %10, double noundef %12)
  ret void
}

; Function Attrs: nounwind uwtable
define internal void @_draw_equilateral_triangle(ptr noundef %0, float noundef %1) #0 {
  %3 = alloca ptr, align 8
  %4 = alloca float, align 4
  %5 = alloca float, align 4
  %6 = alloca float, align 4
  store ptr %0, ptr %3, align 8, !tbaa !91
  store float %1, ptr %4, align 4, !tbaa !130
  call void @llvm.lifetime.start.p0(i64 4, ptr %5) #13
  %7 = load float, ptr %4, align 4, !tbaa !130
  %8 = fpext reassoc nsz arcp contract afn float %7 to double
  %9 = fmul reassoc nsz arcp contract afn double 0x3FEBB67AE875ED0F, %8
  %10 = fptrunc reassoc nsz arcp contract afn double %9 to float
  store float %10, ptr %5, align 4, !tbaa !130
  call void @llvm.lifetime.start.p0(i64 4, ptr %6) #13
  %11 = load float, ptr %4, align 4, !tbaa !130
  %12 = fmul reassoc nsz arcp contract afn float 5.000000e-01, %11
  store float %12, ptr %6, align 4, !tbaa !130
  %13 = load ptr, ptr %3, align 8, !tbaa !91
  %14 = load float, ptr %4, align 4, !tbaa !130
  %15 = fpext reassoc nsz arcp contract afn float %14 to double
  call void @cairo_move_to(ptr noundef %13, double noundef 0.000000e+00, double noundef %15)
  %16 = load ptr, ptr %3, align 8, !tbaa !91
  %17 = load float, ptr %5, align 4, !tbaa !130
  %18 = fneg reassoc nsz arcp contract afn float %17
  %19 = fpext reassoc nsz arcp contract afn float %18 to double
  %20 = load float, ptr %6, align 4, !tbaa !130
  %21 = fneg reassoc nsz arcp contract afn float %20
  %22 = fpext reassoc nsz arcp contract afn float %21 to double
  call void @cairo_line_to(ptr noundef %16, double noundef %19, double noundef %22)
  %23 = load ptr, ptr %3, align 8, !tbaa !91
  %24 = load float, ptr %5, align 4, !tbaa !130
  %25 = fpext reassoc nsz arcp contract afn float %24 to double
  %26 = load float, ptr %6, align 4, !tbaa !130
  %27 = fneg reassoc nsz arcp contract afn float %26
  %28 = fpext reassoc nsz arcp contract afn float %27 to double
  call void @cairo_line_to(ptr noundef %23, double noundef %25, double noundef %28)
  %29 = load ptr, ptr %3, align 8, !tbaa !91
  %30 = load float, ptr %4, align 4, !tbaa !130
  %31 = fpext reassoc nsz arcp contract afn float %30 to double
  call void @cairo_line_to(ptr noundef %29, double noundef 0.000000e+00, double noundef %31)
  call void @llvm.lifetime.end.p0(i64 4, ptr %6) #13
  call void @llvm.lifetime.end.p0(i64 4, ptr %5) #13
  ret void
}

; Function Attrs: nounwind uwtable
define internal float @_slider_coordinate(float noundef %0, float noundef %1, ptr noundef %2) #0 {
  %4 = alloca float, align 4
  %5 = alloca float, align 4
  %6 = alloca ptr, align 8
  %7 = alloca float, align 4
  %8 = alloca float, align 4
  store float %0, ptr %4, align 4, !tbaa !130
  store float %1, ptr %5, align 4, !tbaa !130
  store ptr %2, ptr %6, align 8, !tbaa !17
  call void @llvm.lifetime.start.p0(i64 4, ptr %7) #13
  store float 0.000000e+00, ptr %7, align 4, !tbaa !130
  call void @llvm.lifetime.start.p0(i64 4, ptr %8) #13
  %9 = load float, ptr %5, align 4, !tbaa !130
  %10 = load ptr, ptr %6, align 8, !tbaa !17
  %11 = call reassoc nsz arcp contract afn float @_slider_right_pos(float noundef %9, ptr noundef %10)
  store float %11, ptr %8, align 4, !tbaa !130
  %12 = load float, ptr %4, align 4, !tbaa !130
  %13 = load float, ptr %8, align 4, !tbaa !130
  %14 = fsub reassoc nsz arcp contract afn float %13, 0.000000e+00
  %15 = fmul reassoc nsz arcp contract afn float %12, %14
  %16 = fadd reassoc nsz arcp contract afn float 0.000000e+00, %15
  %17 = load float, ptr %5, align 4, !tbaa !130
  %18 = fmul reassoc nsz arcp contract afn float %16, %17
  call void @llvm.lifetime.end.p0(i64 4, ptr %8) #13
  call void @llvm.lifetime.end.p0(i64 4, ptr %7) #13
  ret float %18
}

; Function Attrs: nounwind uwtable
define internal void @_draw_indicator(ptr noundef %0, float noundef %1, ptr noundef %2, float noundef %3, ptr noundef byval(%struct._GdkRGBA) align 8 %4, ptr noundef byval(%struct._GdkRGBA) align 8 %5) #0 {
  %7 = alloca ptr, align 8
  %8 = alloca float, align 4
  %9 = alloca ptr, align 8
  %10 = alloca float, align 4
  %11 = alloca float, align 4
  %12 = alloca float, align 4
  %13 = alloca ptr, align 8
  store ptr %0, ptr %7, align 8, !tbaa !17
  store float %1, ptr %8, align 4, !tbaa !130
  store ptr %2, ptr %9, align 8, !tbaa !91
  store float %3, ptr %10, align 4, !tbaa !130
  %14 = load ptr, ptr %7, align 8, !tbaa !17
  %15 = getelementptr inbounds nuw %struct._DtBauhausWidget, ptr %14, i32 0, i32 1
  %16 = load i32, ptr %15, align 8, !tbaa !139
  %17 = icmp ne i32 %16, 1
  br i1 %17, label %18, label %19

18:                                               ; preds = %6
  br label %83

19:                                               ; preds = %6
  call void @llvm.lifetime.start.p0(i64 4, ptr %11) #13
  %20 = load ptr, ptr getelementptr inbounds nuw (%struct.darktable_t, ptr @darktable, i32 0, i32 17), align 8, !tbaa !78
  %21 = getelementptr inbounds nuw %struct.dt_bauhaus_t, ptr %20, i32 0, i32 18
  %22 = load float, ptr %21, align 4, !tbaa !99
  store float %22, ptr %11, align 4, !tbaa !130
  call void @llvm.lifetime.start.p0(i64 4, ptr %12) #13
  %23 = load ptr, ptr getelementptr inbounds nuw (%struct.darktable_t, ptr @darktable, i32 0, i32 17), align 8, !tbaa !78
  %24 = getelementptr inbounds nuw %struct.dt_bauhaus_t, ptr %23, i32 0, i32 16
  %25 = load float, ptr %24, align 4, !tbaa !100
  store float %25, ptr %12, align 4, !tbaa !130
  %26 = load ptr, ptr %9, align 8, !tbaa !91
  call void @cairo_save(ptr noundef %26)
  %27 = load ptr, ptr %9, align 8, !tbaa !91
  %28 = load float, ptr %8, align 4, !tbaa !130
  %29 = load float, ptr %10, align 4, !tbaa !130
  %30 = load ptr, ptr %7, align 8, !tbaa !17
  %31 = call reassoc nsz arcp contract afn float @_slider_coordinate(float noundef %28, float noundef %29, ptr noundef %30)
  %32 = fpext reassoc nsz arcp contract afn float %31 to double
  %33 = load ptr, ptr getelementptr inbounds nuw (%struct.darktable_t, ptr @darktable, i32 0, i32 17), align 8, !tbaa !78
  %34 = getelementptr inbounds nuw %struct.dt_bauhaus_t, ptr %33, i32 0, i32 15
  %35 = load float, ptr %34, align 8, !tbaa !96
  %36 = fpext reassoc nsz arcp contract afn float %35 to double
  %37 = fadd reassoc nsz arcp contract afn double %36, 4.000000e+00
  %38 = load ptr, ptr getelementptr inbounds nuw (%struct.darktable_t, ptr @darktable, i32 0, i32 17), align 8, !tbaa !78
  %39 = getelementptr inbounds nuw %struct.dt_bauhaus_t, ptr %38, i32 0, i32 17
  %40 = load float, ptr %39, align 8, !tbaa !98
  %41 = load float, ptr %11, align 4, !tbaa !130
  %42 = fsub reassoc nsz arcp contract afn float %40, %41
  %43 = fdiv reassoc nsz arcp contract afn float %42, 2.000000e+00
  %44 = fpext reassoc nsz arcp contract afn float %43 to double
  %45 = fadd reassoc nsz arcp contract afn double %37, %44
  call void @cairo_translate(ptr noundef %27, double noundef %32, double noundef %45)
  %46 = load ptr, ptr %9, align 8, !tbaa !91
  call void @cairo_scale(ptr noundef %46, double noundef 1.000000e+00, double noundef -1.000000e+00)
  %47 = load ptr, ptr %9, align 8, !tbaa !91
  call void @cairo_set_line_cap(ptr noundef %47, i32 noundef 1)
  %48 = load ptr, ptr %9, align 8, !tbaa !91
  %49 = load float, ptr %12, align 4, !tbaa !130
  call void @_draw_equilateral_triangle(ptr noundef %48, float noundef %49)
  %50 = load ptr, ptr %9, align 8, !tbaa !91
  %51 = load float, ptr %11, align 4, !tbaa !130
  %52 = fpext reassoc nsz arcp contract afn float %51 to double
  call void @cairo_set_line_width(ptr noundef %50, double noundef %52)
  %53 = load ptr, ptr %9, align 8, !tbaa !91
  call void @set_color(ptr noundef %53, ptr noundef byval(%struct._GdkRGBA) align 8 %5)
  %54 = load ptr, ptr %9, align 8, !tbaa !91
  call void @cairo_stroke(ptr noundef %54)
  %55 = load ptr, ptr %9, align 8, !tbaa !91
  %56 = load float, ptr %12, align 4, !tbaa !130
  %57 = load float, ptr %11, align 4, !tbaa !130
  %58 = fsub reassoc nsz arcp contract afn float %56, %57
  call void @_draw_equilateral_triangle(ptr noundef %55, float noundef %58)
  %59 = load ptr, ptr %9, align 8, !tbaa !91
  call void @cairo_clip(ptr noundef %59)
  %60 = load ptr, ptr %9, align 8, !tbaa !91
  %61 = load float, ptr %12, align 4, !tbaa !130
  %62 = load float, ptr %11, align 4, !tbaa !130
  %63 = fsub reassoc nsz arcp contract afn float %61, %62
  call void @_draw_equilateral_triangle(ptr noundef %60, float noundef %63)
  %64 = load ptr, ptr %9, align 8, !tbaa !91
  call void @set_color(ptr noundef %64, ptr noundef byval(%struct._GdkRGBA) align 8 %4)
  %65 = load ptr, ptr %9, align 8, !tbaa !91
  %66 = load float, ptr %11, align 4, !tbaa !130
  %67 = fpext reassoc nsz arcp contract afn float %66 to double
  call void @cairo_set_line_width(ptr noundef %65, double noundef %67)
  call void @llvm.lifetime.start.p0(i64 8, ptr %13) #13
  %68 = load ptr, ptr %7, align 8, !tbaa !17
  %69 = getelementptr inbounds nuw %struct._DtBauhausWidget, ptr %68, i32 0, i32 19
  store ptr %69, ptr %13, align 8, !tbaa !140
  %70 = load ptr, ptr %13, align 8, !tbaa !140
  %71 = getelementptr inbounds nuw %struct.dt_bauhaus_slider_data_t, ptr %70, i32 0, i32 14
  %72 = load i8, ptr %71, align 8
  %73 = shl i8 %72, 7
  %74 = ashr i8 %73, 7
  %75 = sext i8 %74 to i32
  %76 = icmp ne i32 %75, 0
  br i1 %76, label %77, label %79

77:                                               ; preds = %19
  %78 = load ptr, ptr %9, align 8, !tbaa !91
  call void @cairo_fill(ptr noundef %78)
  br label %81

79:                                               ; preds = %19
  %80 = load ptr, ptr %9, align 8, !tbaa !91
  call void @cairo_stroke(ptr noundef %80)
  br label %81

81:                                               ; preds = %79, %77
  %82 = load ptr, ptr %9, align 8, !tbaa !91
  call void @cairo_restore(ptr noundef %82)
  call void @llvm.lifetime.end.p0(i64 8, ptr %13) #13
  call void @llvm.lifetime.end.p0(i64 4, ptr %12) #13
  call void @llvm.lifetime.end.p0(i64 4, ptr %11) #13
  br label %83

83:                                               ; preds = %81, %18
  ret void
}