; Function Attrs: nounwind uwtable
define internal fastcc void @_draw_indicator(ptr noundef readonly captures(none) %0, float noundef %1, ptr noundef %2, float noundef %3, ptr noundef readonly byval(%struct._GdkRGBA) align 8 captures(none) %4, ptr noundef readonly byval(%struct._GdkRGBA) align 8 captures(none) %5) unnamed_addr #0 {
  %7 = getelementptr inbounds nuw i8, ptr %0, i64 40
  %8 = load i32, ptr %7, align 8, !tbaa !105
  %.not = icmp eq i32 %8, 1
  br i1 %.not, label %9, label %59

9:                                                ; preds = %6
  %10 = load ptr, ptr getelementptr inbounds nuw (i8, ptr @darktable, i64 128), align 8, !tbaa !67
  %11 = getelementptr inbounds nuw i8, ptr %10, i64 324
  %12 = load float, ptr %11, align 4, !tbaa !83
  %13 = getelementptr inbounds nuw i8, ptr %10, i64 316
  %14 = load float, ptr %13, align 4, !tbaa !84
  tail call void @cairo_save(ptr noundef %2) #19
  %15 = getelementptr i8, ptr %0, i64 380
  %.val = load i32, ptr %15, align 4, !tbaa !123
  %.not.i.i.i = icmp eq i32 %.val, 0
  %.pre = load ptr, ptr getelementptr inbounds nuw (i8, ptr @darktable, i64 128), align 8, !tbaa !67
  br i1 %.not.i.i.i, label %_slider_coordinate.exit, label %16

16:                                               ; preds = %9
  %17 = getelementptr inbounds nuw i8, ptr %.pre, i64 328
  %18 = load float, ptr %17, align 8, !tbaa !81
  %19 = fadd reassoc nsz arcp contract afn float %18, 4.000000e+00
  br label %_slider_coordinate.exit

_slider_coordinate.exit:                          ; preds = %9, %16
  %.0.i.i.i = phi nsz float [ %19, %16 ], [ 0.000000e+00, %9 ]
  %20 = fdiv reassoc nsz arcp contract afn float %.0.i.i.i, %3
  %21 = fsub reassoc nsz arcp contract afn float 1.000000e+00, %20
  %22 = fmul reassoc nsz arcp contract afn float %3, %1
  %23 = fmul reassoc nsz arcp contract afn float %22, %21
  %24 = fpext reassoc nsz arcp contract afn float %23 to double
  %25 = getelementptr inbounds nuw i8, ptr %.pre, i64 312
  %26 = load float, ptr %25, align 8, !tbaa !80
  %27 = fpext reassoc nsz arcp contract afn float %26 to double
  %28 = fadd reassoc nsz arcp contract afn double %27, 4.000000e+00
  %29 = getelementptr inbounds nuw i8, ptr %.pre, i64 320
  %30 = load float, ptr %29, align 8, !tbaa !82
  %31 = fsub reassoc nsz arcp contract afn float %30, %12
  %32 = fmul reassoc nsz arcp contract afn float %31, 5.000000e-01
  %33 = fpext reassoc nsz arcp contract afn float %32 to double
  %34 = fadd reassoc nsz arcp contract afn double %28, %33
  tail call void @cairo_translate(ptr noundef %2, double noundef %24, double noundef %34) #19
  tail call void @cairo_scale(ptr noundef %2, double noundef 1.000000e+00, double noundef -1.000000e+00) #19
  tail call void @cairo_set_line_cap(ptr noundef %2, i32 noundef 1) #19
  %35 = fpext reassoc nsz arcp contract afn float %14 to double
  %36 = fmul reassoc nsz arcp contract afn double %35, 0x3FEBB67AE875ED0F
  %37 = fptrunc reassoc nsz arcp contract afn double %36 to float
  tail call void @cairo_move_to(ptr noundef %2, double noundef 0.000000e+00, double noundef %35) #19
  %38 = fneg reassoc nsz arcp contract afn float %37
  %39 = fpext reassoc nsz arcp contract afn float %38 to double
  %40 = fmul reassoc nsz arcp contract afn float %14, -5.000000e-01
  %41 = fpext reassoc nsz arcp contract afn float %40 to double
  tail call void @cairo_line_to(ptr noundef %2, double noundef %39, double noundef %41) #19
  %42 = fpext reassoc nsz arcp contract afn float %37 to double
  tail call void @cairo_line_to(ptr noundef %2, double noundef %42, double noundef %41) #19
  tail call void @cairo_line_to(ptr noundef %2, double noundef 0.000000e+00, double noundef %35) #19
  %43 = fpext reassoc nsz arcp contract afn float %12 to double
  tail call void @cairo_set_line_width(ptr noundef %2, double noundef %43) #19
  %.sroa.0.0.copyload = load double, ptr %5, align 8
  %.sroa.4.0..sroa_idx = getelementptr inbounds nuw i8, ptr %5, i64 8
  %.sroa.4.0.copyload = load double, ptr %.sroa.4.0..sroa_idx, align 8
  %.sroa.5.0..sroa_idx = getelementptr inbounds nuw i8, ptr %5, i64 16
  %.sroa.5.0.copyload = load double, ptr %.sroa.5.0..sroa_idx, align 8
  %.sroa.6.0..sroa_idx = getelementptr inbounds nuw i8, ptr %5, i64 24
  %.sroa.6.0.copyload = load double, ptr %.sroa.6.0..sroa_idx, align 8
  tail call void @cairo_set_source_rgba(ptr noundef %2, double noundef %.sroa.0.0.copyload, double noundef %.sroa.4.0.copyload, double noundef %.sroa.5.0.copyload, double noundef %.sroa.6.0.copyload) #19
  tail call void @cairo_stroke(ptr noundef %2) #19
  %44 = fsub reassoc nsz arcp contract afn float %14, %12
  %45 = fpext reassoc nsz arcp contract afn float %44 to double
  %46 = fmul reassoc nsz arcp contract afn double %45, 0x3FEBB67AE875ED0F
  %47 = fptrunc reassoc nsz arcp contract afn double %46 to float
  tail call void @cairo_move_to(ptr noundef %2, double noundef 0.000000e+00, double noundef %45) #19
  %48 = fneg reassoc nsz arcp contract afn float %47
  %49 = fpext reassoc nsz arcp contract afn float %48 to double
  %50 = fmul reassoc nsz arcp contract afn float %44, -5.000000e-01
  %51 = fpext reassoc nsz arcp contract afn float %50 to double
  tail call void @cairo_line_to(ptr noundef %2, double noundef %49, double noundef %51) #19
  %52 = fpext reassoc nsz arcp contract afn float %47 to double
  tail call void @cairo_line_to(ptr noundef %2, double noundef %52, double noundef %51) #19
  tail call void @cairo_line_to(ptr noundef %2, double noundef 0.000000e+00, double noundef %45) #19
  tail call void @cairo_clip(ptr noundef %2) #19
  tail call void @cairo_move_to(ptr noundef %2, double noundef 0.000000e+00, double noundef %45) #19
  tail call void @cairo_line_to(ptr noundef %2, double noundef %49, double noundef %51) #19
  tail call void @cairo_line_to(ptr noundef %2, double noundef %52, double noundef %51) #19
  tail call void @cairo_line_to(ptr noundef %2, double noundef 0.000000e+00, double noundef %45) #19
  %.sroa.031.0.copyload = load double, ptr %4, align 8
  %.sroa.432.0..sroa_idx = getelementptr inbounds nuw i8, ptr %4, i64 8
  %.sroa.432.0.copyload = load double, ptr %.sroa.432.0..sroa_idx, align 8
  %.sroa.533.0..sroa_idx = getelementptr inbounds nuw i8, ptr %4, i64 16
  %.sroa.533.0.copyload = load double, ptr %.sroa.533.0..sroa_idx, align 8
  %.sroa.634.0..sroa_idx = getelementptr inbounds nuw i8, ptr %4, i64 24
  %.sroa.634.0.copyload = load double, ptr %.sroa.634.0..sroa_idx, align 8
  tail call void @cairo_set_source_rgba(ptr noundef %2, double noundef %.sroa.031.0.copyload, double noundef %.sroa.432.0.copyload, double noundef %.sroa.533.0.copyload, double noundef %.sroa.634.0.copyload) #19
  tail call void @cairo_set_line_width(ptr noundef %2, double noundef %43) #19
  %53 = getelementptr inbounds nuw i8, ptr %0, i64 480
  %54 = load i8, ptr %53, align 8
  %55 = and i8 %54, 1
  %.not30 = icmp eq i8 %55, 0
  br i1 %.not30, label %57, label %56

56:                                               ; preds = %_slider_coordinate.exit
  tail call void @cairo_fill(ptr noundef %2) #19
  br label %58

57:                                               ; preds = %_slider_coordinate.exit
  tail call void @cairo_stroke(ptr noundef %2) #19
  br label %58

58:                                               ; preds = %57, %56
  tail call void @cairo_restore(ptr noundef %2) #19
  br label %59

59:                                               ; preds = %6, %58
  ret void
}